target datalayout = "e-m:e-p270:32:32-p271:32:32-p272:64:64-i64:64-i128:128-f80:128-n8:16:32:64-S128"
target triple = "x86_64-pc-linux-gnu"

@os_page = internal global i64 0, align 8
@je_opt_abort = external global i8, align 1
@.str.7 = private unnamed_addr constant [35 x i8] c"<jemalloc>: Error in munmap(): %s\0A\00", align 1

; Function Attrs: nounwind uwtable
define internal ptr @os_pages_trim(ptr noundef %0, i64 noundef %1, i64 noundef %2, i64 noundef %3, ptr noundef %4) #0 {
  %6 = alloca ptr, align 8
  %7 = alloca i64, align 8
  %8 = alloca i64, align 8
  %9 = alloca i64, align 8
  %10 = alloca ptr, align 8
  %11 = alloca ptr, align 8
  %12 = alloca i64, align 8
  store ptr %0, ptr %6, align 8, !tbaa !4
  store i64 %1, ptr %7, align 8, !tbaa !8
  store i64 %2, ptr %8, align 8, !tbaa !8
  store i64 %3, ptr %9, align 8, !tbaa !8
  store ptr %4, ptr %10, align 8, !tbaa !10
  call void @llvm.lifetime.start.p0(i64 8, ptr %11) #10
  %13 = load ptr, ptr %6, align 8, !tbaa !4
  %14 = ptrtoint ptr %13 to i64
  %15 = load i64, ptr %8, align 8, !tbaa !8
  %16 = add i64 %14, %15
  %17 = inttoptr i64 %16 to ptr
  store ptr %17, ptr %11, align 8, !tbaa !4
  br label %18

18:                                               ; preds = %5
  br label %19

19:                                               ; preds = %18
  br label %20

20:                                               ; preds = %19
  call void @llvm.lifetime.start.p0(i64 8, ptr %12) #10
  %21 = load i64, ptr %7, align 8, !tbaa !8
  %22 = load i64, ptr %8, align 8, !tbaa !8
  %23 = sub i64 %21, %22
  %24 = load i64, ptr %9, align 8, !tbaa !8
  %25 = sub i64 %23, %24
  store i64 %25, ptr %12, align 8, !tbaa !8
  %26 = load i64, ptr %8, align 8, !tbaa !8
  %27 = icmp ne i64 %26, 0
  br i1 %27, label %28, label %31

28:                                               ; preds = %20
  %29 = load ptr, ptr %6, align 8, !tbaa !4
  %30 = load i64, ptr %8, align 8, !tbaa !8
  call void @os_pages_unmap(ptr noundef %29, i64 noundef %30)
  br label %31

31:                                               ; preds = %28, %20
  %32 = load i64, ptr %12, align 8, !tbaa !8
  %33 = icmp ne i64 %32, 0
  br i1 %33, label %34, label %41

34:                                               ; preds = %31
  %35 = load ptr, ptr %11, align 8, !tbaa !4
  %36 = ptrtoint ptr %35 to i64
  %37 = load i64, ptr %9, align 8, !tbaa !8
  %38 = add i64 %36, %37
  %39 = inttoptr i64 %38 to ptr
  %40 = load i64, ptr %12, align 8, !tbaa !8
  call void @os_pages_unmap(ptr noundef %39, i64 noundef %40)
  br label %41

41:                                               ; preds = %34, %31
  %42 = load ptr, ptr %11, align 8, !tbaa !4
  call void @llvm.lifetime.end.p0(i64 8, ptr %12) #10
  call void @llvm.lifetime.end.p0(i64 8, ptr %11) #10
  ret ptr %42
}

; Function Attrs: inlinehint nounwind uwtable
define internal i32 @get_errno() #6 {
  %1 = call ptr @__errno_location() #13
  %2 = load i32, ptr %1, align 4, !tbaa !16
  ret i32 %2
}

; Function Attrs: nounwind uwtable
define internal ptr @pages_map_slow(i64 noundef %0, i64 noundef %1, ptr noundef %2) #0 {
  %4 = alloca ptr, align 8
  %5 = alloca i64, align 8
  %6 = alloca i64, align 8
  %7 = alloca ptr, align 8
  %8 = alloca i64, align 8
  %9 = alloca i32, align 4
  %10 = alloca ptr, align 8
  %11 = alloca ptr, align 8
  %12 = alloca i64, align 8
  store i64 %0, ptr %5, align 8, !tbaa !8
  store i64 %1, ptr %6, align 8, !tbaa !8
  store ptr %2, ptr %7, align 8, !tbaa !10
  call void @llvm.lifetime.start.p0(i64 8, ptr %8) #10
  %13 = load i64, ptr %5, align 8, !tbaa !8
  %14 = load i64, ptr %6, align 8, !tbaa !8
  %15 = add i64 %13, %14
  %16 = load i64, ptr @os_page, align 8, !tbaa !8
  %17 = sub i64 %15, %16
  store i64 %17, ptr %8, align 8, !tbaa !8
  %18 = load i64, ptr %8, align 8, !tbaa !8
  %19 = load i64, ptr %5, align 8, !tbaa !8
  %20 = icmp ult i64 %18, %19
  br i1 %20, label %21, label %22

21:                                               ; preds = %3
  store ptr null, ptr %4, align 8
  store i32 1, ptr %9, align 4
  br label %65

22:                                               ; preds = %3
  call void @llvm.lifetime.start.p0(i64 8, ptr %10) #10
  br label %23

23:                                               ; preds = %53, %22
  call void @llvm.lifetime.start.p0(i64 8, ptr %11) #10
  %24 = load i64, ptr %8, align 8, !tbaa !8
  %25 = load i64, ptr %6, align 8, !tbaa !8
  %26 = load ptr, ptr %7, align 8, !tbaa !10
  %27 = call ptr @os_pages_map(ptr noundef null, i64 noundef %24, i64 noundef %25, ptr noundef %26)
  store ptr %27, ptr %11, align 8, !tbaa !4
  %28 = load ptr, ptr %11, align 8, !tbaa !4
  %29 = icmp eq ptr %28, null
  br i1 %29, label %30, label %31

30:                                               ; preds = %23
  store ptr null, ptr %4, align 8
  store i32 1, ptr %9, align 4
  br label %50

31:                                               ; preds = %23
  call void @llvm.lifetime.start.p0(i64 8, ptr %12) #10
  %32 = load ptr, ptr %11, align 8, !tbaa !4
  %33 = ptrtoint ptr %32 to i64
  %34 = load i64, ptr %6, align 8, !tbaa !8
  %35 = sub i64 %34, 1
  %36 = add i64 %33, %35
  %37 = load i64, ptr %6, align 8, !tbaa !8
  %38 = xor i64 %37, -1
  %39 = add i64 %38, 1
  %40 = and i64 %36, %39
  %41 = load ptr, ptr %11, align 8, !tbaa !4
  %42 = ptrtoint ptr %41 to i64
  %43 = sub i64 %40, %42
  store i64 %43, ptr %12, align 8, !tbaa !8
  %44 = load ptr, ptr %11, align 8, !tbaa !4
  %45 = load i64, ptr %8, align 8, !tbaa !8
  %46 = load i64, ptr %12, align 8, !tbaa !8
  %47 = load i64, ptr %5, align 8, !tbaa !8
  %48 = load ptr, ptr %7, align 8, !tbaa !10
  %49 = call ptr @os_pages_trim(ptr noundef %44, i64 noundef %45, i64 noundef %46, i64 noundef %47, ptr noundef %48)
  store ptr %49, ptr %10, align 8, !tbaa !4
  call void @llvm.lifetime.end.p0(i64 8, ptr %12) #10
  store i32 0, ptr %9, align 4
  br label %50

50:                                               ; preds = %31, %30
  call void @llvm.lifetime.end.p0(i64 8, ptr %11) #10
  %51 = load i32, ptr %9, align 4
  switch i32 %51, label %64 [
    i32 0, label %52
  ]

52:                                               ; preds = %50
  br label %53

53:                                               ; preds = %52
  %54 = load ptr, ptr %10, align 8, !tbaa !4
  %55 = icmp eq ptr %54, null
  br i1 %55, label %23, label %56, !llvm.loop !18

56:                                               ; preds = %53
  br label %57

57:                                               ; preds = %56
  br label %58

58:                                               ; preds = %57
  br label %59

59:                                               ; preds = %58
  br label %60

60:                                               ; preds = %59
  br label %61

61:                                               ; preds = %60
  br label %62

62:                                               ; preds = %61
  %63 = load ptr, ptr %10, align 8, !tbaa !4
  store ptr %63, ptr %4, align 8
  store i32 1, ptr %9, align 4
  br label %64

64:                                               ; preds = %62, %50
  call void @llvm.lifetime.end.p0(i64 8, ptr %10) #10
  br label %65

65:                                               ; preds = %64, %21
  call void @llvm.lifetime.end.p0(i64 8, ptr %8) #10
  %66 = load ptr, ptr %4, align 8
  ret ptr %66
}

; Function Attrs: nounwind uwtable
define internal void @os_pages_unmap(ptr noundef %0, i64 noundef %1) #0 {
  %3 = alloca ptr, align 8
  %4 = alloca i64, align 8
  %5 = alloca [64 x i8], align 16
  store ptr %0, ptr %3, align 8, !tbaa !4
  store i64 %1, ptr %4, align 8, !tbaa !8
  br label %6

6:                                                ; preds = %2
  br label %7

7:                                                ; preds = %6
  br label %8

8:                                                ; preds = %7
  br label %9

9:                                                ; preds = %8
  %10 = load ptr, ptr %3, align 8, !tbaa !4
  %11 = load i64, ptr %4, align 8, !tbaa !8
  %12 = call i32 @munmap(ptr noundef %10, i64 noundef %11) #10
  %13 = icmp eq i32 %12, -1
  br i1 %13, label %14, label %23

14:                                               ; preds = %9
  call void @llvm.lifetime.start.p0(i64 64, ptr %5) #10
  %15 = call i32 @get_errno()
  %16 = getelementptr inbounds [64 x i8], ptr %5, i64 0, i64 0
  %17 = call i32 @je_buferror(i32 noundef %15, ptr noundef %16, i64 noundef 64)
  %18 = getelementptr inbounds [64 x i8], ptr %5, i64 0, i64 0
  call void (ptr, ...) @je_malloc_printf(ptr noundef @.str.7, ptr noundef %18)
  %19 = load i8, ptr @je_opt_abort, align 1, !tbaa !12, !range !14, !noundef !15
  %20 = trunc i8 %19 to i1
  br i1 %20, label %21, label %22

21:                                               ; preds = %14
  call void @abort() #11
  unreachable

22:                                               ; preds = %14
  call void @llvm.lifetime.end.p0(i64 64, ptr %5) #10
  br label %23

23:                                               ; preds = %22, %9
  ret void
}

; Function Attrs: nounwind uwtable
define hidden ptr @je_pages_map(ptr noundef %0, i64 noundef %1, i64 noundef %2, ptr noundef %3) #0 {
  %5 = alloca ptr, align 8
  %6 = alloca ptr, align 8
  %7 = alloca i64, align 8
  %8 = alloca i64, align 8
  %9 = alloca ptr, align 8
  %10 = alloca ptr, align 8
  %11 = alloca i32, align 4
  store ptr %0, ptr %6, align 8, !tbaa !4
  store i64 %1, ptr %7, align 8, !tbaa !8
  store i64 %2, ptr %8, align 8, !tbaa !8
  store ptr %3, ptr %9, align 8, !tbaa !10
  br label %12

12:                                               ; preds = %4
  br label %13

13:                                               ; preds = %12
  br label %14

14:                                               ; preds = %13
  br label %15

15:                                               ; preds = %14
  call void @llvm.lifetime.start.p0(i64 8, ptr %10) #10
  %16 = load ptr, ptr %6, align 8, !tbaa !4
  %17 = load i64, ptr %7, align 8, !tbaa !8
  %18 = load i64, ptr @os_page, align 8, !tbaa !8
  %19 = load ptr, ptr %9, align 8, !tbaa !10
  %20 = call ptr @os_pages_map(ptr noundef %16, i64 noundef %17, i64 noundef %18, ptr noundef %19)
  store ptr %20, ptr %10, align 8, !tbaa !4
  %21 = load ptr, ptr %10, align 8, !tbaa !4
  %22 = icmp eq ptr %21, null
  br i1 %22, label %27, label %23

23:                                               ; preds = %15
  %24 = load ptr, ptr %10, align 8, !tbaa !4
  %25 = load ptr, ptr %6, align 8, !tbaa !4
  %26 = icmp eq ptr %24, %25
  br i1 %26, label %27, label %29

27:                                               ; preds = %23, %15
  %28 = load ptr, ptr %10, align 8, !tbaa !4
  store ptr %28, ptr %5, align 8
  store i32 1, ptr %11, align 4
  br label %51

29:                                               ; preds = %23
  br label %30

30:                                               ; preds = %29
  br label %31

31:                                               ; preds = %30
  br label %32

32:                                               ; preds = %31
  %33 = load ptr, ptr %10, align 8, !tbaa !4
  %34 = ptrtoint ptr %33 to i64
  %35 = load i64, ptr %8, align 8, !tbaa !8
  %36 = sub i64 %35, 1
  %37 = and i64 %34, %36
  %38 = icmp ne i64 %37, 0
  br i1 %38, label %39, label %46

39:                                               ; preds = %32
  %40 = load ptr, ptr %10, align 8, !tbaa !4
  %41 = load i64, ptr %7, align 8, !tbaa !8
  call void @os_pages_unmap(ptr noundef %40, i64 noundef %41)
  %42 = load i64, ptr %7, align 8, !tbaa !8
  %43 = load i64, ptr %8, align 8, !tbaa !8
  %44 = load ptr, ptr %9, align 8, !tbaa !10
  %45 = call ptr @pages_map_slow(i64 noundef %42, i64 noundef %43, ptr noundef %44)
  store ptr %45, ptr %5, align 8
  store i32 1, ptr %11, align 4
  br label %51

46:                                               ; preds = %32
  br label %47

47:                                               ; preds = %46
  br label %48

48:                                               ; preds = %47
  br label %49

49:                                               ; preds = %48
  %50 = load ptr, ptr %10, align 8, !tbaa !4
  store ptr %50, ptr %5, align 8
  store i32 1, ptr %11, align 4
  br label %51

51:                                               ; preds = %49, %39, %27
  call void @llvm.lifetime.end.p0(i64 8, ptr %10) #10
  %52 = load ptr, ptr %5, align 8
  ret ptr %52
}