; Function Attrs: nounwind uwtable
define hidden ptr @je_pages_map(ptr noundef %0, i64 noundef %1, i64 noundef %2, ptr noundef captures(none) %3) local_unnamed_addr #0 {
  %5 = alloca [64 x i8], align 16
  %6 = alloca [64 x i8], align 16
  %7 = alloca [64 x i8], align 16
  %8 = tail call fastcc ptr @os_pages_map(ptr noundef %0, i64 noundef %1, ptr noundef %3)
  %9 = icmp eq ptr %8, null
  %10 = icmp eq ptr %8, %0
  %or.cond = or i1 %9, %10
  br i1 %or.cond, label %pages_map_slow.exit, label %11

11:                                               ; preds = %4
  %12 = ptrtoint ptr %8 to i64
  %13 = add i64 %2, -1
  %14 = and i64 %13, %12
  %.not = icmp eq i64 %14, 0
  br i1 %.not, label %pages_map_slow.exit, label %15

15:                                               ; preds = %11
  %16 = tail call i32 @munmap(ptr noundef nonnull %8, i64 noundef %1) #8
  %17 = icmp eq i32 %16, -1
  br i1 %17, label %18, label %os_pages_unmap.exit

18:                                               ; preds = %15
  call void @llvm.lifetime.start.p0(i64 64, ptr nonnull %7) #8
  %19 = tail call ptr @__errno_location() #9
  %20 = load i32, ptr %19, align 4, !tbaa !4
  %21 = call i32 @je_buferror(i32 noundef %20, ptr noundef nonnull %7, i64 noundef 64) #8
  call void (ptr, ...) @je_malloc_printf(ptr noundef nonnull @.str.7, ptr noundef nonnull %7) #8
  %22 = load i8, ptr @je_opt_abort, align 1, !tbaa !8, !range !10, !noundef !11
  %23 = trunc nuw i8 %22 to i1
  br i1 %23, label %24, label %25

24:                                               ; preds = %18
  call void @abort() #10
  unreachable

25:                                               ; preds = %18
  call void @llvm.lifetime.end.p0(i64 64, ptr nonnull %7) #8
  br label %os_pages_unmap.exit

os_pages_unmap.exit:                              ; preds = %15, %25
  %26 = add i64 %2, %1
  %27 = load i64, ptr @os_page, align 8, !tbaa !12
  %28 = sub i64 %26, %27
  %29 = icmp ult i64 %28, %1
  br i1 %29, label %pages_map_slow.exit, label %.preheader.i

.preheader.i:                                     ; preds = %os_pages_unmap.exit
  %30 = sub i64 0, %2
  br label %31

31:                                               ; preds = %71, %.preheader.i
  %32 = load i8, ptr @os_overcommits, align 1, !tbaa !8, !range !10, !noundef !11
  %33 = trunc nuw i8 %32 to i1
  br i1 %33, label %36, label %._crit_edge.i.i

._crit_edge.i.i:                                  ; preds = %31
  %.pre.i.i = load i8, ptr %3, align 1, !tbaa !8, !range !10
  %34 = trunc nuw i8 %.pre.i.i to i1
  %35 = select i1 %34, i32 3, i32 0
  br label %37

36:                                               ; preds = %31
  store i8 1, ptr %3, align 1, !tbaa !8
  br label %37

37:                                               ; preds = %36, %._crit_edge.i.i
  %38 = phi i32 [ %35, %._crit_edge.i.i ], [ 3, %36 ]
  %39 = load i32, ptr @mmap_flags, align 4, !tbaa !4
  %40 = call ptr @mmap(ptr noundef null, i64 noundef %28, i32 noundef %38, i32 noundef %39, i32 noundef -1, i64 noundef 0) #8
  %magicptr.i = ptrtoint ptr %40 to i64
  switch i64 %magicptr.i, label %41 [
    i64 -1, label %pages_map_slow.exit
    i64 0, label %pages_map_slow.exit
  ]

41:                                               ; preds = %37
  %42 = add i64 %13, %magicptr.i
  %43 = and i64 %42, %30
  %44 = sub i64 %43, %magicptr.i
  %45 = add i64 %44, %1
  %46 = sub i64 %28, %45
  %.not.i.i = icmp eq i64 %43, %magicptr.i
  br i1 %.not.i.i, label %os_pages_unmap.exit.i.i, label %47

47:                                               ; preds = %41
  %48 = call i32 @munmap(ptr noundef nonnull %40, i64 noundef %44) #8
  %49 = icmp eq i32 %48, -1
  br i1 %49, label %50, label %os_pages_unmap.exit.i.i

50:                                               ; preds = %47
  call void @llvm.lifetime.start.p0(i64 64, ptr nonnull %6) #8
  %51 = tail call ptr @__errno_location() #9
  %52 = load i32, ptr %51, align 4, !tbaa !4
  %53 = call i32 @je_buferror(i32 noundef %52, ptr noundef nonnull %6, i64 noundef 64) #8
  call void (ptr, ...) @je_malloc_printf(ptr noundef nonnull @.str.7, ptr noundef nonnull %6) #8
  %54 = load i8, ptr @je_opt_abort, align 1, !tbaa !8, !range !10, !noundef !11
  %55 = trunc nuw i8 %54 to i1
  br i1 %55, label %56, label %57

56:                                               ; preds = %50
  call void @abort() #10
  unreachable

57:                                               ; preds = %50
  call void @llvm.lifetime.end.p0(i64 64, ptr nonnull %6) #8
  br label %os_pages_unmap.exit.i.i

os_pages_unmap.exit.i.i:                          ; preds = %57, %47, %41
  %.not13.i26.i = icmp eq i64 %28, %45
  br i1 %.not13.i26.i, label %71, label %58

58:                                               ; preds = %os_pages_unmap.exit.i.i
  %59 = add i64 %43, %1
  %60 = inttoptr i64 %59 to ptr
  %61 = call i32 @munmap(ptr noundef %60, i64 noundef %46) #8
  %62 = icmp eq i32 %61, -1
  br i1 %62, label %63, label %71

63:                                               ; preds = %58
  call void @llvm.lifetime.start.p0(i64 64, ptr nonnull %5) #8
  %64 = tail call ptr @__errno_location() #9
  %65 = load i32, ptr %64, align 4, !tbaa !4
  %66 = call i32 @je_buferror(i32 noundef %65, ptr noundef nonnull %5, i64 noundef 64) #8
  call void (ptr, ...) @je_malloc_printf(ptr noundef nonnull @.str.7, ptr noundef nonnull %5) #8
  %67 = load i8, ptr @je_opt_abort, align 1, !tbaa !8, !range !10, !noundef !11
  %68 = trunc nuw i8 %67 to i1
  br i1 %68, label %69, label %70

69:                                               ; preds = %63
  call void @abort() #10
  unreachable

70:                                               ; preds = %63
  call void @llvm.lifetime.end.p0(i64 64, ptr nonnull %5) #8
  br label %71

71:                                               ; preds = %70, %58, %os_pages_unmap.exit.i.i
  %72 = icmp eq i64 %43, 0
  br i1 %72, label %31, label %.thread.loopexit.split.loop.exit.i, !llvm.loop !14

.thread.loopexit.split.loop.exit.i:               ; preds = %71
  %73 = inttoptr i64 %43 to ptr
  br label %pages_map_slow.exit

pages_map_slow.exit:                              ; preds = %37, %37, %.thread.loopexit.split.loop.exit.i, %os_pages_unmap.exit, %11, %4
  %.0 = phi ptr [ %8, %4 ], [ %8, %11 ], [ null, %os_pages_unmap.exit ], [ %73, %.thread.loopexit.split.loop.exit.i ], [ null, %37 ], [ null, %37 ]
  ret ptr %.0
}